; Function Attrs: nounwind uwtable
define void @agedgeattr_init(ptr noundef %0, ptr noundef %1) local_unnamed_addr #0 {
  %3 = load ptr, ptr @AgDataRecName, align 8, !tbaa !15
  %4 = tail call ptr @aggetrec(ptr noundef %1, ptr noundef %3, i32 noundef 0) #12
  %.not = icmp eq ptr %4, null
  br i1 %.not, label %8, label %5

5:                                                ; preds = %2
  %6 = getelementptr inbounds nuw i8, ptr %4, i64 16
  %7 = load ptr, ptr %6, align 8, !tbaa !16
  %.not5 = icmp eq ptr %7, null
  br i1 %.not5, label %8, label %9

8:                                                ; preds = %5, %2
  tail call fastcc void @agmakeattrs(ptr noundef %0, ptr noundef %1)
  br label %9

9:                                                ; preds = %8, %5
  ret void
}